; Function Attrs: mustprogress nofree norecurse nosync nounwind willreturn memory(read, inaccessiblemem: none) uwtable
define hidden { i32, i64 } @_ZN6hermes2vm15numberIsIntegerEPvRNS0_7RuntimeENS0_10NativeArgsE(ptr nocapture readnone %0, ptr nocapture nonnull readnone align 8 %runtime, ptr nocapture noundef readonly %args) #2 {
entry:
  %argCount_.i = getelementptr inbounds i8, ptr %args, i64 8
  %1 = load i32, ptr %argCount_.i, align 8
  %cmp.i.not = icmp eq i32 %1, 0
  br i1 %cmp.i.not, label %return, label %_ZNK6hermes2vm10NativeArgs6getArgEj.exit

_ZNK6hermes2vm10NativeArgs6getArgEj.exit:         ; preds = %entry
  %2 = load ptr, ptr %args, align 8, !noalias !10
  %incdec.ptr.i.i.i = getelementptr inbounds i8, ptr %2, i64 -8
  %retval.sroa.0.0.copyload.i = load i64, ptr %incdec.ptr.i.i.i, align 8
  %cmp.i.i = icmp ugt i64 %retval.sroa.0.0.copyload.i, -1970324836974593
  %3 = bitcast i64 %retval.sroa.0.0.copyload.i to double
  %4 = tail call double @llvm.fabs.f64(double %3)
  %5 = fcmp ueq double %4, 0x7FF0000000000000
  %or.cond = or i1 %cmp.i.i, %5
  br i1 %or.cond, label %return, label %if.end15

if.end15:                                         ; preds = %_ZNK6hermes2vm10NativeArgs6getArgEj.exit
  %6 = tail call double @llvm.trunc.f64(double %3)
  %cmp = fcmp oeq double %6, %3
  %conv.i = zext i1 %cmp to i64
  %or.i.i = or disjoint i64 %conv.i, -1407374883553280
  br label %return

return:                                           ; preds = %entry, %_ZNK6hermes2vm10NativeArgs6getArgEj.exit, %if.end15
  %retval.sroa.4.0 = phi i64 [ %or.i.i, %if.end15 ], [ -1407374883553280, %_ZNK6hermes2vm10NativeArgs6getArgEj.exit ], [ -1407374883553280, %entry ]
  %.fca.1.insert = insertvalue { i32, i64 } { i32 1, i64 poison }, i64 %retval.sroa.4.0, 1
  ret { i32, i64 } %.fca.1.insert
}